target datalayout = "e-m:e-p270:32:32-p271:32:32-p272:64:64-i64:64-i128:128-f80:128-n8:16:32:64-S128"
target triple = "x86_64-pc-linux-gnu"

%struct._zend_executor_globals = type { %struct._zval_struct, %struct._zval_struct, [32 x ptr], ptr, ptr, %struct._zend_array, %struct._zend_array, ptr, i32, i32, ptr, ptr, ptr, ptr, ptr, ptr, i64, ptr, ptr, i32, i32, i64, i32, i32, i32, i8, i8, %struct.zend_atomic_bool_s, %struct.zend_atomic_bool_s, ptr, i64, ptr, ptr, %struct._zend_array, %struct._zend_array, i32, i8, %struct._zval_struct, %struct._zval_struct, %struct._zend_stack, %struct._zend_stack, %struct._zend_stack, ptr, i32, i32, i64, ptr, ptr, ptr, %struct._zend_objects_store, ptr, ptr, ptr, [3 x %struct._zend_op], ptr, i8, i8, i64, i32, i32, ptr, [16 x %struct._HashTableIterator], ptr, %union._zend_function, %struct._zend_op, %struct._zend_array, i64, %struct.zend_get_gc_buffer, ptr, ptr, ptr, i64, i8, i32, ptr, ptr, i64, %struct._zend_call_stack, i64, i64, [6 x ptr] }
%struct.zend_atomic_bool_s = type { i8 }
%struct._zval_struct = type { %union._zend_value, %union.anon.3, %union.anon.6 }
%union._zend_value = type { i64 }
%union.anon.3 = type { i32 }
%union.anon.6 = type { i32 }
%struct._zend_stack = type { i32, i32, i32, ptr }
%struct._zend_objects_store = type { ptr, i32, i32, i32 }
%struct._HashTableIterator = type { ptr, i32, i32 }
%union._zend_function = type { %struct._zend_op_array }
%struct._zend_op_array = type { i8, [3 x i8], i32, ptr, ptr, ptr, i32, i32, ptr, ptr, ptr, ptr, i32, i32, i32, i32, ptr, ptr, ptr, ptr, ptr, i32, i32, ptr, ptr, ptr, i32, i32, i32, i32, ptr, ptr, [6 x ptr] }
%struct._zend_op = type { ptr, %union._znode_op, %union._znode_op, %union._znode_op, i32, i32, i8, i8, i8, i8 }
%union._znode_op = type { i32 }
%struct._zend_array = type { %struct._zend_refcounted_h, %union.anon.0, i32, %union.anon.1, i32, i32, i32, i32, i64, ptr }
%struct._zend_refcounted_h = type { i32, %union.anon }
%union.anon = type { i32 }
%union.anon.0 = type { i32 }
%union.anon.1 = type { ptr }
%struct.zend_get_gc_buffer = type { ptr, ptr, ptr }
%struct._zend_call_stack = type { ptr, i64 }
%struct._spl_SplObjectStorage = type { %struct._zend_array, i64, i32, i64, ptr, %struct._zend_object }
%struct._zend_object = type { %struct._zend_refcounted_h, i32, ptr, ptr, ptr, [1 x %struct._zval_struct] }
%struct._zend_execute_data = type { ptr, ptr, ptr, ptr, %struct._zval_struct, ptr, ptr, ptr, ptr }
%struct._spl_SplObjectStorageElement = type { ptr, %struct._zval_struct }

@.str.1 = private unnamed_addr constant [2 x i8] c"O\00", align 1
@spl_ce_SplObjectStorage = global ptr null, align 8
@executor_globals = external global %struct._zend_executor_globals, align 8

; Function Attrs: nounwind uwtable
define internal ptr @spl_object_storage_from_obj(ptr noundef %0) #0 {
  %2 = alloca ptr, align 8
  store ptr %0, ptr %2, align 8
  %3 = load ptr, ptr %2, align 8
  %4 = getelementptr inbounds i8, ptr %3, i64 -88
  ret ptr %4
}

; Function Attrs: nounwind uwtable
define hidden void @zim_SplObjectStorage_removeAll(ptr noundef %0, ptr noundef %1) #0 {
  %3 = alloca ptr, align 8
  %4 = alloca ptr, align 8
  %5 = alloca ptr, align 8
  %6 = alloca ptr, align 8
  %7 = alloca ptr, align 8
  %8 = alloca ptr, align 8
  %9 = alloca ptr, align 8
  %10 = alloca ptr, align 8
  %11 = alloca ptr, align 8
  %12 = alloca ptr, align 8
  %13 = alloca ptr, align 8
  %14 = alloca ptr, align 8
  %15 = alloca ptr, align 8
  %16 = alloca ptr, align 8
  store ptr %0, ptr %10, align 8
  store ptr %1, ptr %11, align 8
  %17 = load ptr, ptr %10, align 8
  %18 = getelementptr inbounds %struct._zend_execute_data, ptr %17, i32 0, i32 4
  %19 = getelementptr inbounds %struct._zval_struct, ptr %18, i32 0, i32 0
  %20 = load ptr, ptr %19, align 8
  %21 = call ptr @spl_object_storage_from_obj(ptr noundef %20)
  store ptr %21, ptr %13, align 8
  %22 = load ptr, ptr %10, align 8
  %23 = getelementptr inbounds %struct._zend_execute_data, ptr %22, i32 0, i32 4
  %24 = getelementptr inbounds %struct._zval_struct, ptr %23, i32 0, i32 2
  %25 = load i32, ptr %24, align 4
  %26 = load ptr, ptr @spl_ce_SplObjectStorage, align 8
  %27 = call i32 (i32, ptr, ...) @zend_parse_parameters(i32 noundef %25, ptr noundef @.str.1, ptr noundef %12, ptr noundef %26)
  %28 = icmp eq i32 %27, -1
  br i1 %28, label %29, label %34

29:                                               ; preds = %2
  br label %30

30:                                               ; preds = %29
  %31 = load ptr, ptr getelementptr inbounds (%struct._zend_executor_globals, ptr @executor_globals, i32 0, i32 50), align 8
  %32 = icmp ne ptr %31, null
  call void @llvm.assume(i1 %32)
  br label %101

33:                                               ; No predecessors!
  br label %34

34:                                               ; preds = %33, %2
  %35 = load ptr, ptr %12, align 8
  %36 = getelementptr inbounds %struct._zval_struct, ptr %35, i32 0, i32 0
  %37 = load ptr, ptr %36, align 8
  %38 = call ptr @spl_object_storage_from_obj(ptr noundef %37)
  store ptr %38, ptr %14, align 8
  %39 = load ptr, ptr %14, align 8
  %40 = getelementptr inbounds %struct._spl_SplObjectStorage, ptr %39, i32 0, i32 0
  store ptr %40, ptr %8, align 8
  %41 = load ptr, ptr %8, align 8
  %42 = load ptr, ptr %8, align 8
  %43 = getelementptr inbounds %struct._zend_array, ptr %42, i32 0, i32 7
  call void @zend_hash_internal_pointer_reset_ex(ptr noundef %41, ptr noundef %43) #10
  br label %44

44:                                               ; preds = %79, %34
  %45 = load ptr, ptr %14, align 8
  %46 = getelementptr inbounds %struct._spl_SplObjectStorage, ptr %45, i32 0, i32 0
  %47 = load ptr, ptr %14, align 8
  %48 = getelementptr inbounds %struct._spl_SplObjectStorage, ptr %47, i32 0, i32 0
  %49 = getelementptr inbounds %struct._zend_array, ptr %48, i32 0, i32 7
  store ptr %46, ptr %5, align 8
  store ptr %49, ptr %6, align 8
  %50 = load ptr, ptr %5, align 8
  %51 = load ptr, ptr %6, align 8
  %52 = call ptr @zend_hash_get_current_data_ex(ptr noundef %50, ptr noundef %51) #10
  store ptr %52, ptr %7, align 8
  %53 = load ptr, ptr %7, align 8
  %54 = icmp ne ptr %53, null
  br i1 %54, label %55, label %61

55:                                               ; preds = %44
  %56 = load ptr, ptr %7, align 8
  %57 = load ptr, ptr %56, align 8
  %58 = icmp ne ptr %57, null
  call void @llvm.assume(i1 %58)
  %59 = load ptr, ptr %7, align 8
  %60 = load ptr, ptr %59, align 8
  store ptr %60, ptr %4, align 8
  br label %62

61:                                               ; preds = %44
  store ptr null, ptr %4, align 8
  br label %62

62:                                               ; preds = %61, %55
  %63 = load ptr, ptr %4, align 8
  store ptr %63, ptr %15, align 8
  %64 = icmp ne ptr %63, null
  br i1 %64, label %65, label %80

65:                                               ; preds = %62
  %66 = load ptr, ptr %13, align 8
  %67 = load ptr, ptr %15, align 8
  %68 = getelementptr inbounds %struct._spl_SplObjectStorageElement, ptr %67, i32 0, i32 0
  %69 = load ptr, ptr %68, align 8
  %70 = call i32 @spl_object_storage_detach(ptr noundef %66, ptr noundef %69)
  %71 = icmp eq i32 %70, -1
  br i1 %71, label %72, label %79

72:                                               ; preds = %65
  %73 = load ptr, ptr %14, align 8
  %74 = getelementptr inbounds %struct._spl_SplObjectStorage, ptr %73, i32 0, i32 0
  store ptr %74, ptr %3, align 8
  %75 = load ptr, ptr %3, align 8
  %76 = load ptr, ptr %3, align 8
  %77 = getelementptr inbounds %struct._zend_array, ptr %76, i32 0, i32 7
  %78 = call i32 @zend_hash_move_forward_ex(ptr noundef %75, ptr noundef %77) #10
  br label %79

79:                                               ; preds = %72, %65
  br label %44

80:                                               ; preds = %62
  %81 = load ptr, ptr %13, align 8
  %82 = getelementptr inbounds %struct._spl_SplObjectStorage, ptr %81, i32 0, i32 0
  %83 = load ptr, ptr %13, align 8
  %84 = getelementptr inbounds %struct._spl_SplObjectStorage, ptr %83, i32 0, i32 2
  call void @zend_hash_internal_pointer_reset_ex(ptr noundef %82, ptr noundef %84)
  %85 = load ptr, ptr %13, align 8
  %86 = getelementptr inbounds %struct._spl_SplObjectStorage, ptr %85, i32 0, i32 1
  store i64 0, ptr %86, align 8
  br label %87

87:                                               ; preds = %80
  br label %88

88:                                               ; preds = %87
  %89 = load ptr, ptr %11, align 8
  store ptr %89, ptr %16, align 8
  %90 = load ptr, ptr %13, align 8
  %91 = getelementptr inbounds %struct._spl_SplObjectStorage, ptr %90, i32 0, i32 0
  store ptr %91, ptr %9, align 8
  %92 = load ptr, ptr %9, align 8
  %93 = getelementptr inbounds %struct._zend_array, ptr %92, i32 0, i32 5
  %94 = load i32, ptr %93, align 4
  %95 = zext i32 %94 to i64
  %96 = load ptr, ptr %16, align 8
  %97 = getelementptr inbounds %struct._zval_struct, ptr %96, i32 0, i32 0
  store i64 %95, ptr %97, align 8
  %98 = load ptr, ptr %16, align 8
  %99 = getelementptr inbounds %struct._zval_struct, ptr %98, i32 0, i32 1
  store i32 4, ptr %99, align 8
  br label %100

100:                                              ; preds = %88
  br label %101

101:                                              ; preds = %100, %30
  ret void
}