; Function Attrs: nounwind uwtable
define hidden void @zim_SplObjectStorage_removeAll(ptr nocapture noundef readonly %0, ptr nocapture noundef writeonly %1) #0 {
  %3 = alloca ptr, align 8
  %4 = getelementptr inbounds i8, ptr %0, i64 32
  %5 = load ptr, ptr %4, align 8
  %6 = getelementptr inbounds i8, ptr %5, i64 -88
  %7 = getelementptr inbounds i8, ptr %0, i64 44
  %8 = load i32, ptr %7, align 4
  %9 = load ptr, ptr @spl_ce_SplObjectStorage, align 8
  %10 = call i32 (i32, ptr, ...) @zend_parse_parameters(i32 noundef %8, ptr noundef nonnull @.str.1, ptr noundef nonnull %3, ptr noundef %9) #10
  %11 = icmp eq i32 %10, -1
  br i1 %11, label %12, label %15

12:                                               ; preds = %2
  %13 = load ptr, ptr getelementptr inbounds (%struct._zend_executor_globals, ptr @executor_globals, i64 0, i32 50), align 8
  %14 = icmp ne ptr %13, null
  call void @llvm.assume(i1 %14)
  br label %36

15:                                               ; preds = %2
  %16 = load ptr, ptr %3, align 8
  %17 = load ptr, ptr %16, align 8
  %18 = getelementptr inbounds i8, ptr %17, i64 -88
  %19 = getelementptr inbounds i8, ptr %17, i64 -52
  call void @zend_hash_internal_pointer_reset_ex(ptr noundef nonnull %18, ptr noundef nonnull %19) #10
  %20 = call ptr @zend_hash_get_current_data_ex(ptr noundef nonnull %18, ptr noundef nonnull %19) #10
  %.not30 = icmp eq ptr %20, null
  br i1 %.not30, label %._crit_edge, label %.lr.ph

.lr.ph:                                           ; preds = %15, %28
  %21 = phi ptr [ %29, %28 ], [ %20, %15 ]
  %22 = load ptr, ptr %21, align 8, !nonnull !4, !noundef !4
  %23 = load ptr, ptr %22, align 8
  %24 = call fastcc i32 @spl_object_storage_detach(ptr noundef nonnull %6, ptr noundef %23)
  %25 = icmp eq i32 %24, -1
  br i1 %25, label %26, label %28

26:                                               ; preds = %.lr.ph
  %27 = call i32 @zend_hash_move_forward_ex(ptr noundef nonnull %18, ptr noundef nonnull %19) #10
  br label %28

28:                                               ; preds = %26, %.lr.ph
  %29 = call ptr @zend_hash_get_current_data_ex(ptr noundef nonnull %18, ptr noundef nonnull %19) #10
  %.not = icmp eq ptr %29, null
  br i1 %.not, label %._crit_edge, label %.lr.ph

._crit_edge:                                      ; preds = %28, %15
  %30 = getelementptr inbounds i8, ptr %5, i64 -24
  call void @zend_hash_internal_pointer_reset_ex(ptr noundef nonnull %6, ptr noundef nonnull %30) #10
  %31 = getelementptr inbounds i8, ptr %5, i64 -32
  store i64 0, ptr %31, align 8
  %32 = getelementptr inbounds i8, ptr %5, i64 -60
  %33 = load i32, ptr %32, align 4
  %34 = zext i32 %33 to i64
  store i64 %34, ptr %1, align 8
  %35 = getelementptr inbounds i8, ptr %1, i64 8
  store i32 4, ptr %35, align 8
  br label %36

36:                                               ; preds = %._crit_edge, %12
  ret void
}